; Function Attrs: mustprogress nounwind uwtable
define void @ggml_opt_result_free(ptr noundef %0) local_unnamed_addr #9 personality ptr @__gxx_personality_v0 {
  %2 = icmp eq ptr %0, null
  br i1 %2, label %20, label %3

3:                                                ; preds = %1
  %4 = getelementptr inbounds nuw i8, ptr %0, i64 32
  %5 = load ptr, ptr %4, align 8, !tbaa !117
  %.not.i.i.i.i = icmp eq ptr %5, null
  br i1 %.not.i.i.i.i, label %_ZNSt6vectorIiSaIiEED2Ev.exit.i, label %6

6:                                                ; preds = %3
  %7 = getelementptr inbounds nuw i8, ptr %0, i64 48
  %8 = load ptr, ptr %7, align 8, !tbaa !118
  %9 = ptrtoint ptr %8 to i64
  %10 = ptrtoint ptr %5 to i64
  %11 = sub i64 %9, %10
  tail call void @_ZdlPvm(ptr noundef nonnull %5, i64 noundef %11) #29
  br label %_ZNSt6vectorIiSaIiEED2Ev.exit.i

_ZNSt6vectorIiSaIiEED2Ev.exit.i:                  ; preds = %6, %3
  %12 = getelementptr inbounds nuw i8, ptr %0, i64 8
  %13 = load ptr, ptr %12, align 8, !tbaa !119
  %.not.i.i.i1.i = icmp eq ptr %13, null
  br i1 %.not.i.i.i1.i, label %_ZN15ggml_opt_resultD2Ev.exit, label %14

14:                                               ; preds = %_ZNSt6vectorIiSaIiEED2Ev.exit.i
  %15 = getelementptr inbounds nuw i8, ptr %0, i64 24
  %16 = load ptr, ptr %15, align 8, !tbaa !120
  %17 = ptrtoint ptr %16 to i64
  %18 = ptrtoint ptr %13 to i64
  %19 = sub i64 %17, %18
  tail call void @_ZdlPvm(ptr noundef nonnull %13, i64 noundef %19) #29
  br label %_ZN15ggml_opt_resultD2Ev.exit

_ZN15ggml_opt_resultD2Ev.exit:                    ; preds = %_ZNSt6vectorIiSaIiEED2Ev.exit.i, %14
  tail call void @_ZdlPvm(ptr noundef nonnull %0, i64 noundef 80) #29
  br label %20

20:                                               ; preds = %_ZN15ggml_opt_resultD2Ev.exit, %1
  ret void
}